target datalayout = "e-m:e-p270:32:32-p271:32:32-p272:64:64-i64:64-i128:128-f80:128-n8:16:32:64-S128"
target triple = "x86_64-pc-linux-gnu"

%struct.Vmem = type { ptr, i64, i64 }
%struct.ParseContext_ = type { %struct.TokenData, i32, %union.SourceSpan, %union.SourceSpan, ptr, %struct.Lexer }
%struct.TokenData = type { ptr, i64, %union.anon.86 }
%union.anon.86 = type { %struct.anon.89 }
%struct.anon.89 = type { %struct.Int128_, i8 }
%struct.Int128_ = type { i64, i64 }
%union.SourceSpan = type { i64 }
%struct.Lexer = type { ptr, ptr, ptr, ptr, i32, i32, ptr, ptr, ptr, %struct.TokenData, %union.SourceSpan, i32, i32 }
%struct.Ast_ = type { %union.SourceSpan, i32, i8, %union.anon.62 }
%union.anon.62 = type { %struct.AstDocDirective_ }
%struct.AstDocDirective_ = type { i8, %union.anon.65 }
%union.anon.65 = type { %struct.anon.66 }
%struct.anon.66 = type { ptr, %union.SourceSpan, i8 }
%struct.Expr_ = type { ptr, %union.SourceSpan, i16, %union.anon.30 }
%union.anon.30 = type { %struct.ExprAnySwitch }
%struct.ExprAnySwitch = type { i8, %union.anon.32 }
%union.anon.32 = type { %struct.anon.33 }
%struct.anon.33 = type { ptr, %union.SourceSpan, ptr }
%struct.Label = type { ptr, %union.SourceSpan }
%struct.AstNextcaseStmt = type { i32, %union.anon.78 }
%union.anon.78 = type { %struct.anon.79 }
%struct.anon.79 = type { %struct.Label, i32, i8 }

@poisoned_ast = external global ptr, align 8
@.str.11 = private unnamed_addr constant [13 x i8] c"Expected ';'\00", align 1
@expr_arena = external global %struct.Vmem, align 8
@ast_arena = external global %struct.Vmem, align 8

; Function Attrs: nounwind uwtable
define internal i32 @exprid(ptr noundef %0) #0 {
  %2 = alloca ptr, align 8
  store ptr %0, ptr %2, align 8
  %3 = load ptr, ptr %2, align 8
  %4 = load ptr, ptr @expr_arena, align 8
  %5 = ptrtoint ptr %3 to i64
  %6 = ptrtoint ptr %4 to i64
  %7 = sub i64 %5, %6
  %8 = sdiv exact i64 %7, 56
  %9 = trunc i64 %8 to i32
  ret i32 %9
}

; Function Attrs: nounwind uwtable
define internal void @parse_optional_label_target(ptr noundef %0, ptr noundef %1) #0 {
  %3 = alloca ptr, align 8
  %4 = alloca ptr, align 8
  %5 = alloca i32, align 4
  %6 = alloca ptr, align 8
  %7 = alloca i32, align 4
  %8 = alloca ptr, align 8
  %9 = alloca ptr, align 8
  store ptr %0, ptr %8, align 8
  store ptr %1, ptr %9, align 8
  %10 = load ptr, ptr %8, align 8
  store ptr %10, ptr %4, align 8
  store i32 65, ptr %5, align 4
  %11 = load ptr, ptr %4, align 8
  %12 = getelementptr inbounds %struct.ParseContext_, ptr %11, i32 0, i32 1
  %13 = load i32, ptr %12, align 8
  %14 = load i32, ptr %5, align 4
  %15 = icmp eq i32 %13, %14
  br i1 %15, label %16, label %29

16:                                               ; preds = %2
  %17 = load ptr, ptr %9, align 8
  %18 = getelementptr inbounds %struct.Label, ptr %17, i32 0, i32 1
  %19 = load ptr, ptr %8, align 8
  %20 = getelementptr inbounds %struct.ParseContext_, ptr %19, i32 0, i32 2
  call void @llvm.memcpy.p0.p0.i64(ptr align 8 %18, ptr align 8 %20, i64 8, i1 false)
  %21 = load ptr, ptr %8, align 8
  store ptr %21, ptr %3, align 8
  %22 = load ptr, ptr %3, align 8
  %23 = getelementptr inbounds %struct.TokenData, ptr %22, i32 0, i32 2
  %24 = load ptr, ptr %23, align 8
  %25 = load ptr, ptr %9, align 8
  %26 = getelementptr inbounds %struct.Label, ptr %25, i32 0, i32 0
  store ptr %24, ptr %26, align 8
  %27 = load ptr, ptr %8, align 8
  store ptr %27, ptr %6, align 8
  store i32 65, ptr %7, align 4
  %28 = load ptr, ptr %6, align 8
  call void @advance(ptr noundef %28) #4
  br label %29

29:                                               ; preds = %16, %2
  ret void
}

; Function Attrs: nounwind uwtable
define internal ptr @ast_calloc() #0 {
  %1 = call ptr @vmem_alloc(ptr noundef @ast_arena, i64 noundef 48)
  ret ptr %1
}

; Function Attrs: nounwind uwtable
define internal ptr @parse_nextcase_stmt(ptr noundef %0) #0 {
  %2 = alloca ptr, align 8
  %3 = alloca ptr, align 8
  %4 = alloca i32, align 4
  %5 = alloca ptr, align 8
  %6 = alloca i32, align 4
  %7 = alloca %union.SourceSpan, align 8
  %8 = alloca i32, align 4
  %9 = alloca ptr, align 8
  %10 = alloca ptr, align 8
  %11 = alloca ptr, align 8
  %12 = alloca i32, align 4
  %13 = alloca ptr, align 8
  %14 = alloca i32, align 4
  %15 = alloca ptr, align 8
  %16 = alloca ptr, align 8
  %17 = alloca ptr, align 8
  %18 = alloca ptr, align 8
  store ptr %0, ptr %16, align 8
  %19 = load ptr, ptr %16, align 8
  %20 = getelementptr inbounds %struct.ParseContext_, ptr %19, i32 0, i32 2
  %21 = getelementptr inbounds %union.SourceSpan, ptr %20, i32 0, i32 0
  %22 = load i64, ptr %21, align 8
  store i64 %22, ptr %7, align 8
  store i32 28, ptr %8, align 4
  %23 = call ptr @ast_calloc()
  store ptr %23, ptr %9, align 8
  %24 = load ptr, ptr %9, align 8
  call void @llvm.memcpy.p0.p0.i64(ptr align 8 %24, ptr align 8 %7, i64 8, i1 false)
  %25 = load i32, ptr %8, align 4
  %26 = load ptr, ptr %9, align 8
  %27 = getelementptr inbounds %struct.Ast_, ptr %26, i32 0, i32 2
  %28 = trunc i32 %25 to i8
  store i8 %28, ptr %27, align 4
  %29 = load ptr, ptr %9, align 8
  store ptr %29, ptr %17, align 8
  %30 = load ptr, ptr %16, align 8
  store ptr %30, ptr %11, align 8
  store i32 133, ptr %12, align 4
  %31 = load ptr, ptr %11, align 8
  call void @advance(ptr noundef %31) #4
  %32 = load ptr, ptr %16, align 8
  %33 = call zeroext i1 @try_consume(ptr noundef %32, i32 noundef 9)
  br i1 %33, label %34, label %36

34:                                               ; preds = %1
  %35 = load ptr, ptr %17, align 8
  store ptr %35, ptr %15, align 8
  br label %108

36:                                               ; preds = %1
  %37 = load ptr, ptr %16, align 8
  store ptr %37, ptr %3, align 8
  store i32 65, ptr %4, align 4
  %38 = load ptr, ptr %3, align 8
  %39 = getelementptr inbounds %struct.ParseContext_, ptr %38, i32 0, i32 1
  %40 = load i32, ptr %39, align 8
  %41 = load i32, ptr %4, align 4
  %42 = icmp eq i32 %40, %41
  br i1 %42, label %43, label %58

43:                                               ; preds = %36
  %44 = load ptr, ptr %16, align 8
  store ptr %44, ptr %2, align 8
  %45 = load ptr, ptr %2, align 8
  %46 = getelementptr inbounds %struct.ParseContext_, ptr %45, i32 0, i32 5
  %47 = getelementptr inbounds %struct.Lexer, ptr %46, i32 0, i32 11
  %48 = load i32, ptr %47, align 8
  %49 = icmp eq i32 %48, 7
  br i1 %49, label %50, label %58

50:                                               ; preds = %43
  %51 = load ptr, ptr %16, align 8
  %52 = load ptr, ptr %17, align 8
  %53 = getelementptr inbounds %struct.Ast_, ptr %52, i32 0, i32 3
  %54 = getelementptr inbounds %struct.AstNextcaseStmt, ptr %53, i32 0, i32 1
  %55 = getelementptr inbounds %struct.anon.79, ptr %54, i32 0, i32 0
  call void @parse_optional_label_target(ptr noundef %51, ptr noundef %55)
  %56 = load ptr, ptr %16, align 8
  store ptr %56, ptr %13, align 8
  store i32 7, ptr %14, align 4
  %57 = load ptr, ptr %13, align 8
  call void @advance(ptr noundef %57) #4
  br label %58

58:                                               ; preds = %50, %43, %36
  %59 = load ptr, ptr %16, align 8
  %60 = call zeroext i1 @try_consume(ptr noundef %59, i32 noundef 114)
  br i1 %60, label %61, label %66

61:                                               ; preds = %58
  %62 = load ptr, ptr %17, align 8
  %63 = getelementptr inbounds %struct.Ast_, ptr %62, i32 0, i32 3
  %64 = getelementptr inbounds %struct.AstNextcaseStmt, ptr %63, i32 0, i32 1
  %65 = getelementptr inbounds %struct.anon.79, ptr %64, i32 0, i32 2
  store i8 1, ptr %65, align 4
  br label %90

66:                                               ; preds = %58
  %67 = load ptr, ptr %16, align 8
  %68 = call ptr @parse_expr(ptr noundef %67)
  store ptr %68, ptr %18, align 8
  %69 = load ptr, ptr %18, align 8
  store ptr %69, ptr %10, align 8
  %70 = load ptr, ptr %10, align 8
  %71 = icmp eq ptr %70, null
  br i1 %71, label %79, label %72

72:                                               ; preds = %66
  %73 = load ptr, ptr %10, align 8
  %74 = getelementptr inbounds %struct.Expr_, ptr %73, i32 0, i32 2
  %75 = load i16, ptr %74, align 8
  %76 = and i16 %75, 255
  %77 = zext i16 %76 to i32
  %78 = icmp ne i32 %77, 0
  br label %79

79:                                               ; preds = %72, %66
  %80 = phi i1 [ true, %66 ], [ %78, %72 ]
  br i1 %80, label %83, label %81

81:                                               ; preds = %79
  %82 = load ptr, ptr @poisoned_ast, align 8
  store ptr %82, ptr %15, align 8
  br label %108

83:                                               ; preds = %79
  %84 = load ptr, ptr %18, align 8
  %85 = call i32 @exprid(ptr noundef %84)
  %86 = load ptr, ptr %17, align 8
  %87 = getelementptr inbounds %struct.Ast_, ptr %86, i32 0, i32 3
  %88 = getelementptr inbounds %struct.AstNextcaseStmt, ptr %87, i32 0, i32 1
  %89 = getelementptr inbounds %struct.anon.79, ptr %88, i32 0, i32 1
  store i32 %85, ptr %89, align 8
  br label %90

90:                                               ; preds = %83, %61
  br label %91

91:                                               ; preds = %90
  %92 = load ptr, ptr %16, align 8
  store ptr %92, ptr %5, align 8
  store i32 9, ptr %6, align 4
  %93 = load ptr, ptr %5, align 8
  %94 = getelementptr inbounds %struct.ParseContext_, ptr %93, i32 0, i32 1
  %95 = load i32, ptr %94, align 8
  %96 = load i32, ptr %6, align 4
  %97 = icmp eq i32 %95, %96
  br i1 %97, label %104, label %98

98:                                               ; preds = %91
  %99 = load ptr, ptr %16, align 8
  %100 = getelementptr inbounds %struct.ParseContext_, ptr %99, i32 0, i32 3
  %101 = getelementptr inbounds %union.SourceSpan, ptr %100, i32 0, i32 0
  %102 = load i64, ptr %101, align 8
  call void (i64, ptr, ...) @sema_error_at_after(i64 %102, ptr noundef @.str.11)
  %103 = load ptr, ptr @poisoned_ast, align 8
  store ptr %103, ptr %15, align 8
  br label %108

104:                                              ; preds = %91
  %105 = load ptr, ptr %16, align 8
  call void @advance(ptr noundef %105)
  br label %106

106:                                              ; preds = %104
  %107 = load ptr, ptr %17, align 8
  store ptr %107, ptr %15, align 8
  br label %108

108:                                              ; preds = %106, %98, %81, %34
  %109 = load ptr, ptr %15, align 8
  ret ptr %109
}