; Function Attrs: nounwind uwtable
define internal fastcc ptr @parse_nextcase_stmt(ptr noundef %0) unnamed_addr #0 {
  %2 = getelementptr inbounds i8, ptr %0, i64 48
  %3 = load i64, ptr %2, align 8
  %4 = tail call ptr @vmem_alloc(ptr noundef nonnull @ast_arena, i64 noundef 48) #5
  store i64 %3, ptr %4, align 8
  %5 = getelementptr inbounds i8, ptr %4, i64 12
  store i8 28, ptr %5, align 4
  tail call void @advance(ptr noundef %0) #5
  %6 = tail call zeroext i1 @try_consume(ptr noundef %0, i32 noundef 9) #5
  br i1 %6, label %45, label %7

7:                                                ; preds = %1
  %8 = getelementptr inbounds i8, ptr %0, i64 40
  %9 = load i32, ptr %8, align 8
  %10 = icmp eq i32 %9, 65
  br i1 %10, label %11, label %20

11:                                               ; preds = %7
  %12 = getelementptr inbounds i8, ptr %0, i64 184
  %13 = load i32, ptr %12, align 8
  %14 = icmp eq i32 %13, 7
  br i1 %14, label %parse_optional_label_target.exit, label %20

parse_optional_label_target.exit:                 ; preds = %11
  %15 = getelementptr inbounds i8, ptr %4, i64 24
  %16 = getelementptr inbounds i8, ptr %4, i64 32
  %17 = load i64, ptr %2, align 8
  store i64 %17, ptr %16, align 8
  %18 = getelementptr inbounds i8, ptr %0, i64 16
  %19 = load ptr, ptr %18, align 8
  store ptr %19, ptr %15, align 8
  tail call void @advance(ptr noundef nonnull %0) #5
  tail call void @advance(ptr noundef nonnull %0) #5
  br label %20

20:                                               ; preds = %parse_optional_label_target.exit, %11, %7
  %21 = tail call zeroext i1 @try_consume(ptr noundef nonnull %0, i32 noundef 114) #5
  br i1 %21, label %22, label %24

22:                                               ; preds = %20
  %23 = getelementptr inbounds i8, ptr %4, i64 44
  store i8 1, ptr %23, align 4
  br label %37

24:                                               ; preds = %20
  %25 = tail call ptr @parse_expr(ptr noundef nonnull %0) #5
  %26 = icmp eq ptr %25, null
  br i1 %26, label %.critedge, label %27

27:                                               ; preds = %24
  %28 = getelementptr inbounds i8, ptr %25, i64 16
  %29 = load i16, ptr %28, align 8
  %30 = and i16 %29, 255
  %.not = icmp eq i16 %30, 0
  br i1 %.not, label %32, label %.split

.split:                                           ; preds = %27
  %31 = ptrtoint ptr %25 to i64
  br label %.critedge

32:                                               ; preds = %27
  %33 = load ptr, ptr @poisoned_ast, align 8
  br label %45

.critedge:                                        ; preds = %24, %.split
  %.sink = phi i64 [ %31, %.split ], [ 0, %24 ]
  %.sink35 = load ptr, ptr @expr_arena, align 8
  %34 = ptrtoint ptr %.sink35 to i64
  %35 = sub i64 %.sink, %34
  %phi.call.in = sdiv exact i64 %35, 56
  %phi.call = trunc i64 %phi.call.in to i32
  %36 = getelementptr inbounds i8, ptr %4, i64 40
  store i32 %phi.call, ptr %36, align 8
  br label %37

37:                                               ; preds = %22, %.critedge
  %38 = load i32, ptr %8, align 8
  %39 = icmp eq i32 %38, 9
  br i1 %39, label %44, label %40

40:                                               ; preds = %37
  %41 = getelementptr inbounds i8, ptr %0, i64 56
  %42 = load i64, ptr %41, align 8
  tail call void (i64, ptr, ...) @sema_error_at_after(i64 %42, ptr noundef nonnull @.str.11) #5
  %43 = load ptr, ptr @poisoned_ast, align 8
  br label %45

44:                                               ; preds = %37
  tail call void @advance(ptr noundef nonnull %0) #5
  br label %45

45:                                               ; preds = %1, %44, %40, %32
  %.0 = phi ptr [ %4, %44 ], [ %43, %40 ], [ %33, %32 ], [ %4, %1 ]
  ret ptr %.0
}